ccopy_reg
_reconstructor
p1
(ccore.turing
MaquinaTuring
p2
c__builtin__
object
p3
NtRp4
(dp5
S'estado_inicial'
p6
S'0'
sS'blanco'
p7
S'#'
sS'estado'
p8
S'0'
sS'list_item'
p9
(lp10
(lp11
S'0'
aS'a'
aS'1'
aS'#'
aS'D'
aa(lp12
S'0'
aS'b'
aS'2'
aS'b'
aS'D'
aa(lp13
S'1'
aS'a'
aS'1'
aS'a'
aS'D'
aa(lp14
S'1'
aS'b'
aS'1'
aS'b'
aS'D'
aa(lp15
S'1'
aS'#'
aS'3'
aS'#'
aS'I'
aa(lp16
S'2'
aS'b'
aS'2'
aS'b'
aS'D'
aa(lp17
S'2'
aS'#'
aS'2'
aS'#'
aS'D'
aa(lp18
S'3'
aS'b'
aS'4'
aS'#'
aS'I'
aa(lp19
S'4'
aS'a'
aS'4'
aS'a'
aS'I'
aa(lp20
S'4'
aS'b'
aS'4'
aS'b'
aS'I'
aa(lp21
S'4'
aS'#'
aS'0'
aS'#'
aS'D'
aasS'conj_estados_finales_aceptadores'
p22
S"['2']"
p23
sS'program'
p24
(dp25
S'1'
(dp26
S'a'
(S'1'
S'a'
S'D'
tp27
sS'#'
(S'3'
S'#'
S'I'
tp28
sS'b'
(S'1'
S'b'
S'D'
tp29
ssS'0'
(dp30
S'a'
(S'1'
S'#'
S'D'
tp31
sS'b'
(S'2'
S'b'
S'D'
tp32
ssS'3'
(dp33
S'b'
(S'4'
S'#'
S'I'
tp34
ssS'2'
(dp35
S'#'
(S'2'
S'#'
S'D'
tp36
sS'b'
(S'2'
S'b'
S'D'
tp37
ssS'4'
(dp38
S'a'
(S'4'
S'a'
S'I'
tp39
sS'#'
(S'0'
S'#'
S'D'
tp40
sS'b'
(S'4'
S'b'
S'I'
tp41
sssS'alfabeto_entrada'
p42
S"['a', 'b']"
p43
sS'conj_estados'
p44
S"['0', '1', '2', '3', '4']"
p45
sb.