ccopy_reg
_reconstructor
p1
(ccore.turing
MaquinaTuring
p2
c__builtin__
object
p3
NtRp4
(dp5
S'estado_inicial'
p6
S'a'
sS'blanco'
p7
S'q'
sS'estado'
p8
S'a'
sS'list_item'
p9
(lp10
sS'conj_estados_finales_aceptadores'
p11
S"['c']"
p12
sS'program'
p13
(dp14
sS'alfabeto_entrada'
p15
S"['1', '2', '3']"
p16
sS'conj_estados'
p17
S"['a', 'b', 'c']"
p18
sb.